target datalayout = "e-m:e-p270:32:32-p271:32:32-p272:64:64-i64:64-i128:128-f80:128-n8:16:32:64-S128"
target triple = "x86_64-pc-linux-gnu"

%class.ConcurrentLocksDump = type <{ ptr, ptr, i8, [7 x i8] }>
%class.ThreadConcurrentLocks = type { ptr, ptr, ptr }

; Function Attrs: mustprogress nounwind uwtable
define linkonce_odr hidden noundef ptr @_ZN21ThreadConcurrentLocks4nextEv(ptr noundef nonnull align 8 dereferenceable(24) %0) #1 comdat align 2 {
  %2 = alloca ptr, align 8
  store ptr %0, ptr %2, align 8
  %3 = load ptr, ptr %2, align 8
  %4 = getelementptr inbounds %class.ThreadConcurrentLocks, ptr %3, i32 0, i32 1
  %5 = load ptr, ptr %4, align 8
  ret ptr %5
}

; Function Attrs: mustprogress nounwind uwtable
define linkonce_odr hidden noundef ptr @_ZN21ThreadConcurrentLocks11java_threadEv(ptr noundef nonnull align 8 dereferenceable(24) %0) #1 comdat align 2 {
  %2 = alloca ptr, align 8
  store ptr %0, ptr %2, align 8
  %3 = load ptr, ptr %2, align 8
  %4 = getelementptr inbounds %class.ThreadConcurrentLocks, ptr %3, i32 0, i32 2
  %5 = load ptr, ptr %4, align 8
  ret ptr %5
}

; Function Attrs: mustprogress nounwind uwtable
define hidden noundef ptr @_ZN19ConcurrentLocksDump23thread_concurrent_locksEP10JavaThread(ptr noundef nonnull align 8 dereferenceable(17) %0, ptr noundef %1) #1 align 2 {
  %3 = alloca ptr, align 8
  %4 = alloca ptr, align 8
  %5 = alloca ptr, align 8
  %6 = alloca ptr, align 8
  store ptr %0, ptr %4, align 8
  store ptr %1, ptr %5, align 8
  %7 = load ptr, ptr %4, align 8
  %8 = getelementptr inbounds %class.ConcurrentLocksDump, ptr %7, i32 0, i32 0
  %9 = load ptr, ptr %8, align 8
  store ptr %9, ptr %6, align 8
  br label %10

10:                                               ; preds = %21, %2
  %11 = load ptr, ptr %6, align 8
  %12 = icmp ne ptr %11, null
  br i1 %12, label %13, label %24

13:                                               ; preds = %10
  %14 = load ptr, ptr %6, align 8
  %15 = call noundef ptr @_ZN21ThreadConcurrentLocks11java_threadEv(ptr noundef nonnull align 8 dereferenceable(24) %14)
  %16 = load ptr, ptr %5, align 8
  %17 = icmp eq ptr %15, %16
  br i1 %17, label %18, label %20

18:                                               ; preds = %13
  %19 = load ptr, ptr %6, align 8
  store ptr %19, ptr %3, align 8
  br label %25

20:                                               ; preds = %13
  br label %21

21:                                               ; preds = %20
  %22 = load ptr, ptr %6, align 8
  %23 = call noundef ptr @_ZN21ThreadConcurrentLocks4nextEv(ptr noundef nonnull align 8 dereferenceable(24) %22)
  store ptr %23, ptr %6, align 8
  br label %10, !llvm.loop !27

24:                                               ; preds = %10
  store ptr null, ptr %3, align 8
  br label %25

25:                                               ; preds = %24, %18
  %26 = load ptr, ptr %3, align 8
  ret ptr %26
}