; Function Attrs: mustprogress nofree norecurse nosync nounwind willreturn memory(read, inaccessiblemem: none) uwtable
define hidden noundef ptr @_ZN19ConcurrentLocksDump23thread_concurrent_locksEP10JavaThread(ptr nocapture noundef nonnull readonly align 8 dereferenceable(17) %0, ptr noundef readnone %1) local_unnamed_addr #5 align 2 {
  %.08 = load ptr, ptr %0, align 8
  %.not9 = icmp eq ptr %.08, null
  br i1 %.not9, label %._crit_edge, label %.lr.ph

.lr.ph:                                           ; preds = %2, %6
  %.010 = phi ptr [ %.0, %6 ], [ %.08, %2 ]
  %3 = getelementptr inbounds i8, ptr %.010, i64 16
  %4 = load ptr, ptr %3, align 8
  %5 = icmp eq ptr %4, %1
  br i1 %5, label %._crit_edge, label %6

6:                                                ; preds = %.lr.ph
  %7 = getelementptr inbounds i8, ptr %.010, i64 8
  %.0 = load ptr, ptr %7, align 8
  %.not = icmp eq ptr %.0, null
  br i1 %.not, label %._crit_edge, label %.lr.ph, !llvm.loop !34

._crit_edge:                                      ; preds = %.lr.ph, %6, %2
  %.0.lcssa = phi ptr [ null, %2 ], [ null, %6 ], [ %.010, %.lr.ph ]
  ret ptr %.0.lcssa
}